target datalayout = "e-m:e-p270:32:32-p271:32:32-p272:64:64-i64:64-i128:128-f80:128-n8:16:32:64-S128"
target triple = "x86_64-pc-linux-gnu"

%struct._zend_posix_globals = type { i32 }
%struct._zval_struct = type { %union._zend_value, %union.anon, %union.anon.2 }
%union._zend_value = type { i64 }
%union.anon = type { i32 }
%union.anon.2 = type { i32 }
%struct._zend_refcounted_h = type { i32, %union.anon.3 }
%union.anon.3 = type { i32 }
%struct._zend_execute_data = type { ptr, ptr, ptr, ptr, %struct._zval_struct, ptr, ptr, ptr, ptr }
%struct._zend_string = type { %struct._zend_refcounted_h, i64, i64, [1 x i8] }

@posix_globals = hidden global %struct._zend_posix_globals zeroinitializer, align 4

; Function Attrs: nounwind uwtable
define hidden void @zif_posix_mkfifo(ptr noundef %0, ptr noundef %1) #0 {
  %3 = alloca ptr, align 8
  %4 = alloca ptr, align 8
  %5 = alloca i1, align 1
  %6 = alloca ptr, align 8
  %7 = alloca ptr, align 8
  %8 = alloca i8, align 1
  %9 = alloca i32, align 4
  %10 = alloca i8, align 1
  %11 = alloca ptr, align 8
  %12 = alloca i64, align 8
  %13 = alloca ptr, align 8
  %14 = alloca ptr, align 8
  %15 = alloca i8, align 1
  %16 = alloca i32, align 4
  %17 = alloca ptr, align 8
  %18 = alloca ptr, align 8
  %19 = alloca i1, align 1
  %20 = alloca ptr, align 8
  %21 = alloca ptr, align 8
  %22 = alloca ptr, align 8
  %23 = alloca i8, align 1
  %24 = alloca i32, align 4
  %25 = alloca i8, align 1
  %26 = alloca i1, align 1
  %27 = alloca ptr, align 8
  %28 = alloca ptr, align 8
  %29 = alloca i8, align 1
  %30 = alloca i32, align 4
  %31 = alloca ptr, align 8
  %32 = alloca ptr, align 8
  %33 = alloca ptr, align 8
  %34 = alloca i8, align 1
  %35 = alloca i32, align 4
  %36 = alloca ptr, align 8
  %37 = alloca ptr, align 8
  %38 = alloca ptr, align 8
  %39 = alloca i64, align 8
  %40 = alloca i32, align 4
  %41 = alloca i32, align 4
  %42 = alloca i32, align 4
  %43 = alloca i32, align 4
  %44 = alloca i32, align 4
  %45 = alloca i32, align 4
  %46 = alloca ptr, align 8
  %47 = alloca ptr, align 8
  %48 = alloca i32, align 4
  %49 = alloca ptr, align 8
  %50 = alloca i8, align 1
  %51 = alloca i8, align 1
  %52 = alloca i32, align 4
  store ptr %0, ptr %36, align 8
  store ptr %1, ptr %37, align 8
  br label %53

53:                                               ; preds = %2
  store i32 0, ptr %41, align 4
  store i32 2, ptr %42, align 4
  store i32 2, ptr %43, align 4
  %54 = load ptr, ptr %36, align 8
  %55 = getelementptr inbounds %struct._zend_execute_data, ptr %54, i32 0, i32 4
  %56 = getelementptr inbounds %struct._zval_struct, ptr %55, i32 0, i32 2
  %57 = load i32, ptr %56, align 4
  store i32 %57, ptr %44, align 4
  store i32 0, ptr %45, align 4
  store ptr null, ptr %47, align 8
  store i32 0, ptr %48, align 4
  store ptr null, ptr %49, align 8
  store i8 0, ptr %50, align 1
  store i8 0, ptr %51, align 1
  store i32 0, ptr %52, align 4
  br label %58

58:                                               ; preds = %53
  %59 = load i32, ptr %44, align 4
  %60 = load i32, ptr %42, align 4
  %61 = icmp ult i32 %59, %60
  %62 = xor i1 %61, true
  %63 = xor i1 %62, true
  %64 = zext i1 %63 to i32
  %65 = sext i32 %64 to i64
  %66 = icmp ne i64 %65, 0
  br i1 %66, label %76, label %67

67:                                               ; preds = %58
  %68 = load i32, ptr %44, align 4
  %69 = load i32, ptr %43, align 4
  %70 = icmp ugt i32 %68, %69
  %71 = xor i1 %70, true
  %72 = xor i1 %71, true
  %73 = zext i1 %72 to i32
  %74 = sext i32 %73 to i64
  %75 = icmp ne i64 %74, 0
  br i1 %75, label %76, label %79

76:                                               ; preds = %67, %58
  %77 = load i32, ptr %42, align 4
  %78 = load i32, ptr %43, align 4
  call void @zend_wrong_parameters_count_error(i32 noundef %77, i32 noundef %78)
  store i32 1, ptr %52, align 4
  br label %309

79:                                               ; preds = %67
  %80 = load ptr, ptr %36, align 8
  %81 = getelementptr inbounds %struct._zval_struct, ptr %80, i64 4
  store ptr %81, ptr %46, align 8
  %82 = load i32, ptr %45, align 4
  %83 = add i32 %82, 1
  store i32 %83, ptr %45, align 4
  %84 = load i32, ptr %45, align 4
  %85 = load i32, ptr %42, align 4
  %86 = icmp ule i32 %84, %85
  br i1 %86, label %92, label %87

87:                                               ; preds = %79
  %88 = load i8, ptr %51, align 1
  %89 = trunc i8 %88 to i1
  %90 = zext i1 %89 to i32
  %91 = icmp eq i32 %90, 1
  br label %92

92:                                               ; preds = %87, %79
  %93 = phi i1 [ true, %79 ], [ %91, %87 ]
  call void @llvm.assume(i1 %93)
  %94 = load i32, ptr %45, align 4
  %95 = load i32, ptr %42, align 4
  %96 = icmp ugt i32 %94, %95
  br i1 %96, label %102, label %97

97:                                               ; preds = %92
  %98 = load i8, ptr %51, align 1
  %99 = trunc i8 %98 to i1
  %100 = zext i1 %99 to i32
  %101 = icmp eq i32 %100, 0
  br label %102

102:                                              ; preds = %97, %92
  %103 = phi i1 [ true, %92 ], [ %101, %97 ]
  call void @llvm.assume(i1 %103)
  %104 = load i8, ptr %51, align 1
  %105 = trunc i8 %104 to i1
  br i1 %105, label %106, label %117

106:                                              ; preds = %102
  %107 = load i32, ptr %45, align 4
  %108 = load i32, ptr %44, align 4
  %109 = icmp ugt i32 %107, %108
  %110 = xor i1 %109, true
  %111 = xor i1 %110, true
  %112 = zext i1 %111 to i32
  %113 = sext i32 %112 to i64
  %114 = icmp ne i64 %113, 0
  br i1 %114, label %115, label %116

115:                                              ; preds = %106
  br label %309

116:                                              ; preds = %106
  br label %117

117:                                              ; preds = %116, %102
  %118 = load ptr, ptr %46, align 8
  %119 = getelementptr inbounds %struct._zval_struct, ptr %118, i32 1
  store ptr %119, ptr %46, align 8
  %120 = load ptr, ptr %46, align 8
  store ptr %120, ptr %47, align 8
  %121 = load ptr, ptr %47, align 8
  %122 = load i32, ptr %45, align 4
  store ptr %121, ptr %27, align 8
  store ptr %38, ptr %28, align 8
  store i8 0, ptr %29, align 1
  store i32 %122, ptr %30, align 4
  %123 = load ptr, ptr %27, align 8
  %124 = load ptr, ptr %28, align 8
  %125 = load i8, ptr %29, align 1
  %126 = trunc i8 %125 to i1
  %127 = load i32, ptr %30, align 4
  store ptr %123, ptr %13, align 8
  store ptr %124, ptr %14, align 8
  %128 = zext i1 %126 to i8
  store i8 %128, ptr %15, align 1
  store i32 %127, ptr %16, align 4
  %129 = load ptr, ptr %13, align 8
  %130 = load ptr, ptr %14, align 8
  %131 = load i8, ptr %15, align 1
  %132 = trunc i8 %131 to i1
  %133 = load i32, ptr %16, align 4
  store ptr %129, ptr %6, align 8
  store ptr %130, ptr %7, align 8
  %134 = zext i1 %132 to i8
  store i8 %134, ptr %8, align 1
  store i32 %133, ptr %9, align 4
  store i8 0, ptr %10, align 1
  %135 = load ptr, ptr %6, align 8
  store ptr %135, ptr %3, align 8
  %136 = load ptr, ptr %3, align 8
  %137 = getelementptr inbounds %struct._zval_struct, ptr %136, i32 0, i32 1
  %138 = load i8, ptr %137, align 8
  %139 = zext i8 %138 to i32
  %140 = icmp eq i32 %139, 6
  br i1 %140, label %141, label %145

141:                                              ; preds = %117
  %142 = load ptr, ptr %6, align 8
  %143 = load ptr, ptr %142, align 8
  %144 = load ptr, ptr %7, align 8
  store ptr %143, ptr %144, align 8
  br label %170

145:                                              ; preds = %117
  %146 = load i8, ptr %8, align 1
  %147 = trunc i8 %146 to i1
  br i1 %147, label %148, label %157

148:                                              ; preds = %145
  %149 = load ptr, ptr %6, align 8
  store ptr %149, ptr %4, align 8
  %150 = load ptr, ptr %4, align 8
  %151 = getelementptr inbounds %struct._zval_struct, ptr %150, i32 0, i32 1
  %152 = load i8, ptr %151, align 8
  %153 = zext i8 %152 to i32
  %154 = icmp eq i32 %153, 1
  br i1 %154, label %155, label %157

155:                                              ; preds = %148
  %156 = load ptr, ptr %7, align 8
  store ptr null, ptr %156, align 8
  br label %170

157:                                              ; preds = %148, %145
  %158 = load i8, ptr %10, align 1
  %159 = trunc i8 %158 to i1
  br i1 %159, label %160, label %165

160:                                              ; preds = %157
  %161 = load ptr, ptr %6, align 8
  %162 = load ptr, ptr %7, align 8
  %163 = load i32, ptr %9, align 4
  %164 = call zeroext i1 @zend_flf_parse_arg_str_slow(ptr noundef %161, ptr noundef %162, i32 noundef %163) #9
  store i1 %164, ptr %5, align 1
  br label %171

165:                                              ; preds = %157
  %166 = load ptr, ptr %6, align 8
  %167 = load ptr, ptr %7, align 8
  %168 = load i32, ptr %9, align 4
  %169 = call zeroext i1 @zend_parse_arg_str_slow(ptr noundef %166, ptr noundef %167, i32 noundef %168) #9
  store i1 %169, ptr %5, align 1
  br label %171

170:                                              ; preds = %155, %141
  store i1 true, ptr %5, align 1
  br label %171

171:                                              ; preds = %170, %165, %160
  %172 = load i1, ptr %5, align 1
  br i1 %172, label %173, label %189

173:                                              ; preds = %171
  %174 = load ptr, ptr %28, align 8
  %175 = load ptr, ptr %174, align 8
  %176 = icmp ne ptr %175, null
  br i1 %176, label %177, label %190

177:                                              ; preds = %173
  %178 = load ptr, ptr %28, align 8
  %179 = load ptr, ptr %178, align 8
  %180 = getelementptr inbounds %struct._zend_string, ptr %179, i32 0, i32 3
  %181 = load ptr, ptr %28, align 8
  %182 = load ptr, ptr %181, align 8
  %183 = getelementptr inbounds %struct._zend_string, ptr %182, i32 0, i32 2
  %184 = load i64, ptr %183, align 8
  store ptr %180, ptr %11, align 8
  store i64 %184, ptr %12, align 8
  %185 = load i64, ptr %12, align 8
  %186 = load ptr, ptr %11, align 8
  %187 = call i64 @strlen(ptr noundef %186) #12
  %188 = icmp ne i64 %185, %187
  br i1 %188, label %189, label %190

189:                                              ; preds = %177, %171
  store i1 false, ptr %26, align 1
  br label %191

190:                                              ; preds = %177, %173
  store i1 true, ptr %26, align 1
  br label %191

191:                                              ; preds = %190, %189
  %192 = load i1, ptr %26, align 1
  %193 = xor i1 %192, true
  %194 = xor i1 %193, true
  %195 = xor i1 %194, true
  %196 = zext i1 %195 to i32
  %197 = sext i32 %196 to i64
  %198 = icmp ne i64 %197, 0
  br i1 %198, label %199, label %200

199:                                              ; preds = %191
  store i32 16, ptr %48, align 4
  store i32 9, ptr %52, align 4
  br label %309

200:                                              ; preds = %191
  %201 = load i32, ptr %45, align 4
  %202 = add i32 %201, 1
  store i32 %202, ptr %45, align 4
  %203 = load i32, ptr %45, align 4
  %204 = load i32, ptr %42, align 4
  %205 = icmp ule i32 %203, %204
  br i1 %205, label %211, label %206

206:                                              ; preds = %200
  %207 = load i8, ptr %51, align 1
  %208 = trunc i8 %207 to i1
  %209 = zext i1 %208 to i32
  %210 = icmp eq i32 %209, 1
  br label %211

211:                                              ; preds = %206, %200
  %212 = phi i1 [ true, %200 ], [ %210, %206 ]
  call void @llvm.assume(i1 %212)
  %213 = load i32, ptr %45, align 4
  %214 = load i32, ptr %42, align 4
  %215 = icmp ugt i32 %213, %214
  br i1 %215, label %221, label %216

216:                                              ; preds = %211
  %217 = load i8, ptr %51, align 1
  %218 = trunc i8 %217 to i1
  %219 = zext i1 %218 to i32
  %220 = icmp eq i32 %219, 0
  br label %221

221:                                              ; preds = %216, %211
  %222 = phi i1 [ true, %211 ], [ %220, %216 ]
  call void @llvm.assume(i1 %222)
  %223 = load i8, ptr %51, align 1
  %224 = trunc i8 %223 to i1
  br i1 %224, label %225, label %236

225:                                              ; preds = %221
  %226 = load i32, ptr %45, align 4
  %227 = load i32, ptr %44, align 4
  %228 = icmp ugt i32 %226, %227
  %229 = xor i1 %228, true
  %230 = xor i1 %229, true
  %231 = zext i1 %230 to i32
  %232 = sext i32 %231 to i64
  %233 = icmp ne i64 %232, 0
  br i1 %233, label %234, label %235

234:                                              ; preds = %225
  br label %309

235:                                              ; preds = %225
  br label %236

236:                                              ; preds = %235, %221
  %237 = load ptr, ptr %46, align 8
  %238 = getelementptr inbounds %struct._zval_struct, ptr %237, i32 1
  store ptr %238, ptr %46, align 8
  %239 = load ptr, ptr %46, align 8
  store ptr %239, ptr %47, align 8
  %240 = load ptr, ptr %47, align 8
  %241 = load i32, ptr %45, align 4
  store ptr %240, ptr %31, align 8
  store ptr %39, ptr %32, align 8
  store ptr %50, ptr %33, align 8
  store i8 0, ptr %34, align 1
  store i32 %241, ptr %35, align 4
  %242 = load ptr, ptr %31, align 8
  %243 = load ptr, ptr %32, align 8
  %244 = load ptr, ptr %33, align 8
  %245 = load i8, ptr %34, align 1
  %246 = trunc i8 %245 to i1
  %247 = load i32, ptr %35, align 4
  store ptr %242, ptr %20, align 8
  store ptr %243, ptr %21, align 8
  store ptr %244, ptr %22, align 8
  %248 = zext i1 %246 to i8
  store i8 %248, ptr %23, align 1
  store i32 %247, ptr %24, align 4
  store i8 0, ptr %25, align 1
  %249 = load i8, ptr %23, align 1
  %250 = trunc i8 %249 to i1
  br i1 %250, label %251, label %253

251:                                              ; preds = %236
  %252 = load ptr, ptr %22, align 8
  store i8 0, ptr %252, align 1
  br label %253

253:                                              ; preds = %251, %236
  %254 = load ptr, ptr %20, align 8
  store ptr %254, ptr %17, align 8
  %255 = load ptr, ptr %17, align 8
  %256 = getelementptr inbounds %struct._zval_struct, ptr %255, i32 0, i32 1
  %257 = load i8, ptr %256, align 8
  %258 = zext i8 %257 to i32
  %259 = icmp eq i32 %258, 4
  br i1 %259, label %260, label %264

260:                                              ; preds = %253
  %261 = load ptr, ptr %20, align 8
  %262 = load i64, ptr %261, align 8
  %263 = load ptr, ptr %21, align 8
  store i64 %262, ptr %263, align 8
  br label %290

264:                                              ; preds = %253
  %265 = load i8, ptr %23, align 1
  %266 = trunc i8 %265 to i1
  br i1 %266, label %267, label %277

267:                                              ; preds = %264
  %268 = load ptr, ptr %20, align 8
  store ptr %268, ptr %18, align 8
  %269 = load ptr, ptr %18, align 8
  %270 = getelementptr inbounds %struct._zval_struct, ptr %269, i32 0, i32 1
  %271 = load i8, ptr %270, align 8
  %272 = zext i8 %271 to i32
  %273 = icmp eq i32 %272, 1
  br i1 %273, label %274, label %277

274:                                              ; preds = %267
  %275 = load ptr, ptr %22, align 8
  store i8 1, ptr %275, align 1
  %276 = load ptr, ptr %21, align 8
  store i64 0, ptr %276, align 8
  br label %290

277:                                              ; preds = %267, %264
  %278 = load i8, ptr %25, align 1
  %279 = trunc i8 %278 to i1
  br i1 %279, label %280, label %285

280:                                              ; preds = %277
  %281 = load ptr, ptr %20, align 8
  %282 = load ptr, ptr %21, align 8
  %283 = load i32, ptr %24, align 4
  %284 = call zeroext i1 @zend_flf_parse_arg_long_slow(ptr noundef %281, ptr noundef %282, i32 noundef %283) #9
  store i1 %284, ptr %19, align 1
  br label %291

285:                                              ; preds = %277
  %286 = load ptr, ptr %20, align 8
  %287 = load ptr, ptr %21, align 8
  %288 = load i32, ptr %24, align 4
  %289 = call zeroext i1 @zend_parse_arg_long_slow(ptr noundef %286, ptr noundef %287, i32 noundef %288) #9
  store i1 %289, ptr %19, align 1
  br label %291

290:                                              ; preds = %274, %260
  store i1 true, ptr %19, align 1
  br label %291

291:                                              ; preds = %290, %285, %280
  %292 = load i1, ptr %19, align 1
  %293 = xor i1 %292, true
  %294 = xor i1 %293, true
  %295 = xor i1 %294, true
  %296 = zext i1 %295 to i32
  %297 = sext i32 %296 to i64
  %298 = icmp ne i64 %297, 0
  br i1 %298, label %299, label %300

299:                                              ; preds = %291
  store i32 0, ptr %48, align 4
  store i32 9, ptr %52, align 4
  br label %309

300:                                              ; preds = %291
  %301 = load i32, ptr %45, align 4
  %302 = load i32, ptr %43, align 4
  %303 = icmp eq i32 %301, %302
  br i1 %303, label %307, label %304

304:                                              ; preds = %300
  %305 = load i32, ptr %43, align 4
  %306 = icmp eq i32 %305, -1
  br label %307

307:                                              ; preds = %304, %300
  %308 = phi i1 [ true, %300 ], [ %306, %304 ]
  call void @llvm.assume(i1 %308)
  br label %309

309:                                              ; preds = %307, %299, %234, %199, %115, %76
  %310 = load i32, ptr %52, align 4
  %311 = icmp ne i32 %310, 0
  %312 = xor i1 %311, true
  %313 = xor i1 %312, true
  %314 = zext i1 %313 to i32
  %315 = sext i32 %314 to i64
  %316 = icmp ne i64 %315, 0
  br i1 %316, label %317, label %323

317:                                              ; preds = %309
  %318 = load i32, ptr %52, align 4
  %319 = load i32, ptr %45, align 4
  %320 = load ptr, ptr %49, align 8
  %321 = load i32, ptr %48, align 4
  %322 = load ptr, ptr %47, align 8
  call void @zend_wrong_parameter_error(i32 noundef %318, i32 noundef %319, ptr noundef %320, i32 noundef %321, ptr noundef %322)
  br label %361

323:                                              ; preds = %309
  br label %324

324:                                              ; preds = %323
  %325 = load ptr, ptr %38, align 8
  %326 = getelementptr inbounds %struct._zend_string, ptr %325, i32 0, i32 3
  %327 = getelementptr inbounds [1 x i8], ptr %326, i64 0, i64 0
  %328 = call i32 @php_check_open_basedir_ex(ptr noundef %327, i32 noundef 0)
  %329 = icmp ne i32 %328, 0
  br i1 %329, label %330, label %337

330:                                              ; preds = %324
  br label %331

331:                                              ; preds = %330
  br label %332

332:                                              ; preds = %331
  %333 = load ptr, ptr %37, align 8
  %334 = getelementptr inbounds %struct._zval_struct, ptr %333, i32 0, i32 1
  store i32 2, ptr %334, align 8
  br label %335

335:                                              ; preds = %332
  br label %361

336:                                              ; No predecessors!
  br label %337

337:                                              ; preds = %336, %324
  %338 = load ptr, ptr %38, align 8
  %339 = getelementptr inbounds %struct._zend_string, ptr %338, i32 0, i32 3
  %340 = getelementptr inbounds [1 x i8], ptr %339, i64 0, i64 0
  %341 = load i64, ptr %39, align 8
  %342 = trunc i64 %341 to i32
  %343 = call i32 @mkfifo(ptr noundef %340, i32 noundef %342) #9
  store i32 %343, ptr %40, align 4
  %344 = load i32, ptr %40, align 4
  %345 = icmp slt i32 %344, 0
  br i1 %345, label %346, label %355

346:                                              ; preds = %337
  %347 = call ptr @__errno_location() #10
  %348 = load i32, ptr %347, align 4
  store i32 %348, ptr @posix_globals, align 4
  br label %349

349:                                              ; preds = %346
  br label %350

350:                                              ; preds = %349
  %351 = load ptr, ptr %37, align 8
  %352 = getelementptr inbounds %struct._zval_struct, ptr %351, i32 0, i32 1
  store i32 2, ptr %352, align 8
  br label %353

353:                                              ; preds = %350
  br label %361

354:                                              ; No predecessors!
  br label %355

355:                                              ; preds = %354, %337
  br label %356

356:                                              ; preds = %355
  br label %357

357:                                              ; preds = %356
  %358 = load ptr, ptr %37, align 8
  %359 = getelementptr inbounds %struct._zval_struct, ptr %358, i32 0, i32 1
  store i32 3, ptr %359, align 8
  br label %360

360:                                              ; preds = %357
  br label %361

361:                                              ; preds = %360, %353, %335, %317
  ret void
}