; Function Attrs: nounwind uwtable
define hidden void @zif_posix_mkfifo(ptr noundef %0, ptr nocapture noundef writeonly %1) #0 {
  %3 = alloca ptr, align 8
  %4 = alloca i64, align 8
  %5 = getelementptr inbounds i8, ptr %0, i64 44
  %6 = load i32, ptr %5, align 4
  %.not = icmp eq i32 %6, 2
  br i1 %.not, label %8, label %7

7:                                                ; preds = %2
  tail call void @zend_wrong_parameters_count_error(i32 noundef 2, i32 noundef 2) #11
  br label %.thread127

8:                                                ; preds = %2
  %9 = getelementptr inbounds i8, ptr %0, i64 80
  %10 = getelementptr inbounds i8, ptr %0, i64 88
  %11 = load i8, ptr %10, align 8
  %12 = icmp eq i8 %11, 6
  br i1 %12, label %.critedge, label %14

.critedge:                                        ; preds = %8
  %13 = load ptr, ptr %9, align 8
  store ptr %13, ptr %3, align 8
  br label %16

14:                                               ; preds = %8
  %15 = call zeroext i1 @zend_parse_arg_str_slow(ptr noundef nonnull %9, ptr noundef nonnull %3, i32 noundef 1) #11
  br i1 %15, label %thread-pre-split, label %.thread127

thread-pre-split:                                 ; preds = %14
  %.pr = load ptr, ptr %3, align 8
  br label %16

16:                                               ; preds = %thread-pre-split, %.critedge
  %17 = phi ptr [ %.pr, %thread-pre-split ], [ %13, %.critedge ]
  %.not112 = icmp eq ptr %17, null
  br i1 %.not112, label %.critedge117, label %18

18:                                               ; preds = %16
  %19 = getelementptr inbounds i8, ptr %17, i64 24
  %20 = getelementptr inbounds i8, ptr %17, i64 16
  %21 = load i64, ptr %20, align 8
  %22 = call i64 @strlen(ptr noundef nonnull dereferenceable(1) %19) #14
  %.not113 = icmp eq i64 %21, %22
  br i1 %.not113, label %.critedge117, label %.thread127

.critedge117:                                     ; preds = %18, %16
  %23 = getelementptr inbounds i8, ptr %0, i64 96
  %24 = getelementptr inbounds i8, ptr %0, i64 104
  %25 = load i8, ptr %24, align 8
  %26 = icmp eq i8 %25, 4
  br i1 %26, label %.thread123, label %28

.thread123:                                       ; preds = %.critedge117
  %27 = load i64, ptr %23, align 8
  store i64 %27, ptr %4, align 8
  br label %.thread144

28:                                               ; preds = %.critedge117
  %29 = call zeroext i1 @zend_parse_arg_long_slow(ptr noundef nonnull %23, ptr noundef nonnull %4, i32 noundef 2) #11
  %.fr = freeze i1 %29
  br i1 %.fr, label %..thread144_crit_edge, label %.thread127

..thread144_crit_edge:                            ; preds = %28
  %.pre = load ptr, ptr %3, align 8
  br label %.thread144

.thread127:                                       ; preds = %14, %18, %7, %28
  %.0136 = phi i32 [ 9, %28 ], [ 9, %14 ], [ 9, %18 ], [ 1, %7 ]
  %.0104135 = phi i32 [ 0, %28 ], [ 16, %14 ], [ 16, %18 ], [ 0, %7 ]
  %.0105134 = phi ptr [ %23, %28 ], [ %9, %14 ], [ %9, %18 ], [ null, %7 ]
  %.0106133 = phi i32 [ 2, %28 ], [ 1, %14 ], [ 1, %18 ], [ 0, %7 ]
  call void @zend_wrong_parameter_error(i32 noundef %.0136, i32 noundef %.0106133, ptr noundef null, i32 noundef %.0104135, ptr noundef %.0105134) #11
  br label %48

.thread144:                                       ; preds = %..thread144_crit_edge, %.thread123
  %30 = phi ptr [ %.pre, %..thread144_crit_edge ], [ %17, %.thread123 ]
  %31 = getelementptr inbounds i8, ptr %30, i64 24
  %32 = call i32 @php_check_open_basedir_ex(ptr noundef nonnull %31, i32 noundef 0) #11
  %.not115 = icmp eq i32 %32, 0
  br i1 %.not115, label %35, label %33

33:                                               ; preds = %.thread144
  %34 = getelementptr inbounds i8, ptr %1, i64 8
  store i32 2, ptr %34, align 8
  br label %48

35:                                               ; preds = %.thread144
  %36 = load ptr, ptr %3, align 8
  %37 = getelementptr inbounds i8, ptr %36, i64 24
  %38 = load i64, ptr %4, align 8
  %39 = trunc i64 %38 to i32
  %40 = call i32 @mkfifo(ptr noundef nonnull %37, i32 noundef %39) #11
  %41 = icmp slt i32 %40, 0
  br i1 %41, label %42, label %46

42:                                               ; preds = %35
  %43 = tail call ptr @__errno_location() #12
  %44 = load i32, ptr %43, align 4
  store i32 %44, ptr @posix_globals, align 4
  %45 = getelementptr inbounds i8, ptr %1, i64 8
  store i32 2, ptr %45, align 8
  br label %48

46:                                               ; preds = %35
  %47 = getelementptr inbounds i8, ptr %1, i64 8
  store i32 3, ptr %47, align 8
  br label %48

48:                                               ; preds = %46, %42, %33, %.thread127
  ret void
}